; ModuleID = '35/1481.c'
source_filename = "35/1481.c"
target datalayout = "e-m:e-p270:32:32-p271:32:32-p272:64:64-i64:64-f80:128-n8:16:32:64-S128"
target triple = "x86_64-pc-linux-gnu"

@.str = private unnamed_addr constant [6 x i8] c"%d,%d\00", align 1
@.str.1 = private unnamed_addr constant [3 x i8] c"%d\00", align 1
@.str.2 = private unnamed_addr constant [6 x i8] c"%d+%d\00", align 1
@.str.3 = private unnamed_addr constant [3 x i8] c"No\00", align 1

; Function Attrs: noinline nounwind uwtable
define dso_local i32 @main() #0 {
  %1 = alloca i32, align 4
  %2 = alloca [8 x [8 x i32]], align 16
  %3 = alloca i32, align 4
  %4 = alloca i32, align 4
  %5 = alloca i32, align 4
  %6 = alloca i32, align 4
  %7 = alloca i32, align 4
  %8 = alloca i32, align 4
  %9 = alloca i32, align 4
  %10 = alloca i32, align 4
  %11 = alloca i32, align 4
  %12 = alloca i32, align 4
  store i32 0, i32* %1, align 4
  store i32 0, i32* %7, align 4
  store i32 0, i32* %10, align 4
  %13 = call i32 (i8*, ...) @__isoc99_scanf(i8* getelementptr inbounds ([6 x i8], [6 x i8]* @.str, i64 0, i64 0), i32* %3, i32* %4)
  store i32 0, i32* %11, align 4
  br label %14

14:                                               ; preds = %35, %0
  %15 = load i32, i32* %11, align 4
  %16 = load i32, i32* %3, align 4
  %17 = icmp slt i32 %15, %16
  br i1 %17, label %18, label %38

18:                                               ; preds = %14
  store i32 0, i32* %12, align 4
  br label %19

19:                                               ; preds = %31, %18
  %20 = load i32, i32* %12, align 4
  %21 = load i32, i32* %4, align 4
  %22 = icmp slt i32 %20, %21
  br i1 %22, label %23, label %34

23:                                               ; preds = %19
  %24 = load i32, i32* %11, align 4
  %25 = sext i32 %24 to i64
  %26 = getelementptr inbounds [8 x [8 x i32]], [8 x [8 x i32]]* %2, i64 0, i64 %25
  %27 = load i32, i32* %12, align 4
  %28 = sext i32 %27 to i64
  %29 = getelementptr inbounds [8 x i32], [8 x i32]* %26, i64 0, i64 %28
  %30 = call i32 (i8*, ...) @__isoc99_scanf(i8* getelementptr inbounds ([3 x i8], [3 x i8]* @.str.1, i64 0, i64 0), i32* %29)
  br label %31

31:                                               ; preds = %23
  %32 = load i32, i32* %12, align 4
  %33 = add nsw i32 %32, 1
  store i32 %33, i32* %12, align 4
  br label %19

34:                                               ; preds = %19
  br label %35

35:                                               ; preds = %34
  %36 = load i32, i32* %11, align 4
  %37 = add nsw i32 %36, 1
  store i32 %37, i32* %11, align 4
  br label %14

38:                                               ; preds = %14
  store i32 0, i32* %5, align 4
  br label %39

39:                                               ; preds = %121, %38
  %40 = load i32, i32* %5, align 4
  %41 = load i32, i32* %3, align 4
  %42 = icmp slt i32 %40, %41
  br i1 %42, label %43, label %122

43:                                               ; preds = %39
  %44 = load i32, i32* %5, align 4
  %45 = sext i32 %44 to i64
  %46 = getelementptr inbounds [8 x [8 x i32]], [8 x [8 x i32]]* %2, i64 0, i64 %45
  %47 = getelementptr inbounds [8 x i32], [8 x i32]* %46, i64 0, i64 0
  %48 = load i32, i32* %47, align 16
  store i32 %48, i32* %7, align 4
  store i32 0, i32* %8, align 4
  store i32 1, i32* %6, align 4
  br label %49

49:                                               ; preds = %73, %43
  %50 = load i32, i32* %6, align 4
  %51 = load i32, i32* %4, align 4
  %52 = icmp slt i32 %50, %51
  br i1 %52, label %53, label %76

53:                                               ; preds = %49
  %54 = load i32, i32* %7, align 4
  %55 = load i32, i32* %5, align 4
  %56 = sext i32 %55 to i64
  %57 = getelementptr inbounds [8 x [8 x i32]], [8 x [8 x i32]]* %2, i64 0, i64 %56
  %58 = load i32, i32* %6, align 4
  %59 = sext i32 %58 to i64
  %60 = getelementptr inbounds [8 x i32], [8 x i32]* %57, i64 0, i64 %59
  %61 = load i32, i32* %60, align 4
  %62 = icmp slt i32 %54, %61
  br i1 %62, label %63, label %72

63:                                               ; preds = %53
  %64 = load i32, i32* %5, align 4
  %65 = sext i32 %64 to i64
  %66 = getelementptr inbounds [8 x [8 x i32]], [8 x [8 x i32]]* %2, i64 0, i64 %65
  %67 = load i32, i32* %6, align 4
  %68 = sext i32 %67 to i64
  %69 = getelementptr inbounds [8 x i32], [8 x i32]* %66, i64 0, i64 %68
  %70 = load i32, i32* %69, align 4
  store i32 %70, i32* %7, align 4
  %71 = load i32, i32* %6, align 4
  store i32 %71, i32* %8, align 4
  br label %72

72:                                               ; preds = %63, %53
  br label %73

73:                                               ; preds = %72
  %74 = load i32, i32* %6, align 4
  %75 = add nsw i32 %74, 1
  store i32 %75, i32* %6, align 4
  br label %49

76:                                               ; preds = %49
  %77 = load i32, i32* %8, align 4
  store i32 %77, i32* %6, align 4
  store i32 1, i32* %5, align 4
  br label %78

78:                                               ; preds = %107, %76
  %79 = load i32, i32* %5, align 4
  %80 = load i32, i32* %3, align 4
  %81 = icmp slt i32 %79, %80
  br i1 %81, label %82, label %110

82:                                               ; preds = %78
  %83 = getelementptr inbounds [8 x [8 x i32]], [8 x [8 x i32]]* %2, i64 0, i64 0
  %84 = load i32, i32* %6, align 4
  %85 = sext i32 %84 to i64
  %86 = getelementptr inbounds [8 x i32], [8 x i32]* %83, i64 0, i64 %85
  %87 = load i32, i32* %86, align 4
  store i32 %87, i32* %9, align 4
  %88 = load i32, i32* %9, align 4
  %89 = load i32, i32* %5, align 4
  %90 = sext i32 %89 to i64
  %91 = getelementptr inbounds [8 x [8 x i32]], [8 x [8 x i32]]* %2, i64 0, i64 %90
  %92 = load i32, i32* %6, align 4
  %93 = sext i32 %92 to i64
  %94 = getelementptr inbounds [8 x i32], [8 x i32]* %91, i64 0, i64 %93
  %95 = load i32, i32* %94, align 4
  %96 = icmp sgt i32 %88, %95
  br i1 %96, label %97, label %106

97:                                               ; preds = %82
  %98 = load i32, i32* %5, align 4
  %99 = sext i32 %98 to i64
  %100 = getelementptr inbounds [8 x [8 x i32]], [8 x [8 x i32]]* %2, i64 0, i64 %99
  %101 = load i32, i32* %6, align 4
  %102 = sext i32 %101 to i64
  %103 = getelementptr inbounds [8 x i32], [8 x i32]* %100, i64 0, i64 %102
  %104 = load i32, i32* %103, align 4
  store i32 %104, i32* %9, align 4
  %105 = load i32, i32* %5, align 4
  store i32 %105, i32* %10, align 4
  br label %106

106:                                              ; preds = %97, %82
  br label %107

107:                                              ; preds = %106
  %108 = load i32, i32* %5, align 4
  %109 = add nsw i32 %108, 1
  store i32 %109, i32* %5, align 4
  br label %78

110:                                              ; preds = %78
  %111 = load i32, i32* %7, align 4
  %112 = load i32, i32* %9, align 4
  %113 = icmp eq i32 %111, %112
  br i1 %113, label %114, label %118

114:                                              ; preds = %110
  %115 = load i32, i32* %10, align 4
  %116 = load i32, i32* %8, align 4
  %117 = call i32 (i8*, ...) @printf(i8* getelementptr inbounds ([6 x i8], [6 x i8]* @.str.2, i64 0, i64 0), i32 %115, i32 %116)
  br label %122

118:                                              ; preds = %110
  %119 = load i32, i32* %5, align 4
  %120 = add nsw i32 %119, 1
  store i32 %120, i32* %5, align 4
  store i32 0, i32* %7, align 4
  br label %121

121:                                              ; preds = %118
  br label %39

122:                                              ; preds = %114, %39
  %123 = load i32, i32* %7, align 4
  %124 = icmp eq i32 %123, 0
  br i1 %124, label %125, label %127

125:                                              ; preds = %122
  %126 = call i32 (i8*, ...) @printf(i8* getelementptr inbounds ([3 x i8], [3 x i8]* @.str.3, i64 0, i64 0))
  br label %127

127:                                              ; preds = %125, %122
  ret i32 0
}

declare dso_local i32 @__isoc99_scanf(i8*, ...) #1

declare dso_local i32 @printf(i8*, ...) #1


!llvm.module.flags = !{!0}
!llvm.ident = !{!1}

!0 = !{i32 1, !"wchar_size", i32 4}
!1 = !{!"clang version 10.0.0-4ubuntu1 "}
